target datalayout = "e-m:e-p270:32:32-p271:32:32-p272:64:64-i64:64-i128:128-f80:128-n8:16:32:64-S128"
target triple = "x86_64-pc-linux-gnu"

%struct.wc_Md5 = type { i32, i32, i32, [16 x i32], [4 x i32], ptr }
%struct.testVector = type { ptr, ptr, i64, i64 }

@.str.24 = private unnamed_addr constant [4 x i8] c"abc\00", align 1
@.str.25 = private unnamed_addr constant [17 x i8] c"\90\01P\98<\D2O\B0\D6\96?}(\E1\7Fr\00", align 1
@.str.26 = private unnamed_addr constant [15 x i8] c"message digest\00", align 1
@.str.27 = private unnamed_addr constant [17 x i8] c"\F9ki}|\B7\93\8DRZ/1\AA\F1a\D0\00", align 1
@.str.28 = private unnamed_addr constant [27 x i8] c"abcdefghijklmnopqrstuvwxyz\00", align 1
@.str.29 = private unnamed_addr constant [17 x i8] c"\C3\FC\D3\D7a\92\E4\00}\FBIl\CAg\E1;\00", align 1
@.str.30 = private unnamed_addr constant [63 x i8] c"ABCDEFGHIJKLMNOPQRSTUVWXYZabcdefghijklmnopqrstuvwxyz0123456789\00", align 1
@.str.31 = private unnamed_addr constant [17 x i8] c"\D1t\AB\98\D2w\D9\F5\A5a\1C,\9FA\9D\9F\00", align 1
@.str.32 = private unnamed_addr constant [81 x i8] c"12345678901234567890123456789012345678901234567890123456789012345678901234567890\00", align 1
@.str.33 = private unnamed_addr constant [17 x i8] c"W\ED\F4\A2+\E3\C9U\ACI\DA.!\07\B6z\00", align 1

; Function Attrs: nounwind uwtable
define dso_local i32 @md5_test() #0 {
  %1 = alloca i32, align 4
  %2 = alloca i32, align 4
  %3 = alloca %struct.wc_Md5, align 8
  %4 = alloca [16 x i8], align 16
  %5 = alloca %struct.testVector, align 8
  %6 = alloca %struct.testVector, align 8
  %7 = alloca %struct.testVector, align 8
  %8 = alloca %struct.testVector, align 8
  %9 = alloca %struct.testVector, align 8
  %10 = alloca [5 x %struct.testVector], align 16
  %11 = alloca i32, align 4
  %12 = alloca i32, align 4
  %13 = alloca i32, align 4
  call void @llvm.lifetime.start.p0(i64 4, ptr %2) #5
  call void @llvm.lifetime.start.p0(i64 104, ptr %3) #5
  call void @llvm.lifetime.start.p0(i64 16, ptr %4) #5
  call void @llvm.lifetime.start.p0(i64 32, ptr %5) #5
  call void @llvm.lifetime.start.p0(i64 32, ptr %6) #5
  call void @llvm.lifetime.start.p0(i64 32, ptr %7) #5
  call void @llvm.lifetime.start.p0(i64 32, ptr %8) #5
  call void @llvm.lifetime.start.p0(i64 32, ptr %9) #5
  call void @llvm.lifetime.start.p0(i64 160, ptr %10) #5
  call void @llvm.lifetime.start.p0(i64 4, ptr %11) #5
  store i32 5, ptr %11, align 4, !tbaa !4
  call void @llvm.lifetime.start.p0(i64 4, ptr %12) #5
  %14 = getelementptr inbounds nuw %struct.testVector, ptr %5, i32 0, i32 0
  store ptr @.str.24, ptr %14, align 8, !tbaa !8
  %15 = getelementptr inbounds nuw %struct.testVector, ptr %5, i32 0, i32 1
  store ptr @.str.25, ptr %15, align 8, !tbaa !13
  %16 = getelementptr inbounds nuw %struct.testVector, ptr %5, i32 0, i32 0
  %17 = load ptr, ptr %16, align 8, !tbaa !8
  %18 = call i64 @strlen(ptr noundef %17) #6
  %19 = getelementptr inbounds nuw %struct.testVector, ptr %5, i32 0, i32 2
  store i64 %18, ptr %19, align 8, !tbaa !14
  %20 = getelementptr inbounds nuw %struct.testVector, ptr %5, i32 0, i32 1
  %21 = load ptr, ptr %20, align 8, !tbaa !13
  %22 = call i64 @strlen(ptr noundef %21) #6
  %23 = getelementptr inbounds nuw %struct.testVector, ptr %5, i32 0, i32 3
  store i64 %22, ptr %23, align 8, !tbaa !15
  %24 = getelementptr inbounds nuw %struct.testVector, ptr %6, i32 0, i32 0
  store ptr @.str.26, ptr %24, align 8, !tbaa !8
  %25 = getelementptr inbounds nuw %struct.testVector, ptr %6, i32 0, i32 1
  store ptr @.str.27, ptr %25, align 8, !tbaa !13
  %26 = getelementptr inbounds nuw %struct.testVector, ptr %6, i32 0, i32 0
  %27 = load ptr, ptr %26, align 8, !tbaa !8
  %28 = call i64 @strlen(ptr noundef %27) #6
  %29 = getelementptr inbounds nuw %struct.testVector, ptr %6, i32 0, i32 2
  store i64 %28, ptr %29, align 8, !tbaa !14
  %30 = getelementptr inbounds nuw %struct.testVector, ptr %6, i32 0, i32 1
  %31 = load ptr, ptr %30, align 8, !tbaa !13
  %32 = call i64 @strlen(ptr noundef %31) #6
  %33 = getelementptr inbounds nuw %struct.testVector, ptr %6, i32 0, i32 3
  store i64 %32, ptr %33, align 8, !tbaa !15
  %34 = getelementptr inbounds nuw %struct.testVector, ptr %7, i32 0, i32 0
  store ptr @.str.28, ptr %34, align 8, !tbaa !8
  %35 = getelementptr inbounds nuw %struct.testVector, ptr %7, i32 0, i32 1
  store ptr @.str.29, ptr %35, align 8, !tbaa !13
  %36 = getelementptr inbounds nuw %struct.testVector, ptr %7, i32 0, i32 0
  %37 = load ptr, ptr %36, align 8, !tbaa !8
  %38 = call i64 @strlen(ptr noundef %37) #6
  %39 = getelementptr inbounds nuw %struct.testVector, ptr %7, i32 0, i32 2
  store i64 %38, ptr %39, align 8, !tbaa !14
  %40 = getelementptr inbounds nuw %struct.testVector, ptr %7, i32 0, i32 1
  %41 = load ptr, ptr %40, align 8, !tbaa !13
  %42 = call i64 @strlen(ptr noundef %41) #6
  %43 = getelementptr inbounds nuw %struct.testVector, ptr %7, i32 0, i32 3
  store i64 %42, ptr %43, align 8, !tbaa !15
  %44 = getelementptr inbounds nuw %struct.testVector, ptr %8, i32 0, i32 0
  store ptr @.str.30, ptr %44, align 8, !tbaa !8
  %45 = getelementptr inbounds nuw %struct.testVector, ptr %8, i32 0, i32 1
  store ptr @.str.31, ptr %45, align 8, !tbaa !13
  %46 = getelementptr inbounds nuw %struct.testVector, ptr %8, i32 0, i32 0
  %47 = load ptr, ptr %46, align 8, !tbaa !8
  %48 = call i64 @strlen(ptr noundef %47) #6
  %49 = getelementptr inbounds nuw %struct.testVector, ptr %8, i32 0, i32 2
  store i64 %48, ptr %49, align 8, !tbaa !14
  %50 = getelementptr inbounds nuw %struct.testVector, ptr %8, i32 0, i32 1
  %51 = load ptr, ptr %50, align 8, !tbaa !13
  %52 = call i64 @strlen(ptr noundef %51) #6
  %53 = getelementptr inbounds nuw %struct.testVector, ptr %8, i32 0, i32 3
  store i64 %52, ptr %53, align 8, !tbaa !15
  %54 = getelementptr inbounds nuw %struct.testVector, ptr %9, i32 0, i32 0
  store ptr @.str.32, ptr %54, align 8, !tbaa !8
  %55 = getelementptr inbounds nuw %struct.testVector, ptr %9, i32 0, i32 1
  store ptr @.str.33, ptr %55, align 8, !tbaa !13
  %56 = getelementptr inbounds nuw %struct.testVector, ptr %9, i32 0, i32 0
  %57 = load ptr, ptr %56, align 8, !tbaa !8
  %58 = call i64 @strlen(ptr noundef %57) #6
  %59 = getelementptr inbounds nuw %struct.testVector, ptr %9, i32 0, i32 2
  store i64 %58, ptr %59, align 8, !tbaa !14
  %60 = getelementptr inbounds nuw %struct.testVector, ptr %9, i32 0, i32 1
  %61 = load ptr, ptr %60, align 8, !tbaa !13
  %62 = call i64 @strlen(ptr noundef %61) #6
  %63 = getelementptr inbounds nuw %struct.testVector, ptr %9, i32 0, i32 3
  store i64 %62, ptr %63, align 8, !tbaa !15
  %64 = getelementptr inbounds [5 x %struct.testVector], ptr %10, i64 0, i64 0
  call void @llvm.memcpy.p0.p0.i64(ptr align 16 %64, ptr align 8 %5, i64 32, i1 false), !tbaa.struct !16
  %65 = getelementptr inbounds [5 x %struct.testVector], ptr %10, i64 0, i64 1
  call void @llvm.memcpy.p0.p0.i64(ptr align 16 %65, ptr align 8 %6, i64 32, i1 false), !tbaa.struct !16
  %66 = getelementptr inbounds [5 x %struct.testVector], ptr %10, i64 0, i64 2
  call void @llvm.memcpy.p0.p0.i64(ptr align 16 %66, ptr align 8 %7, i64 32, i1 false), !tbaa.struct !16
  %67 = getelementptr inbounds [5 x %struct.testVector], ptr %10, i64 0, i64 3
  call void @llvm.memcpy.p0.p0.i64(ptr align 16 %67, ptr align 8 %8, i64 32, i1 false), !tbaa.struct !16
  %68 = getelementptr inbounds [5 x %struct.testVector], ptr %10, i64 0, i64 4
  call void @llvm.memcpy.p0.p0.i64(ptr align 16 %68, ptr align 8 %9, i64 32, i1 false), !tbaa.struct !16
  %69 = call i32 @wc_InitMd5(ptr noundef %3)
  store i32 %69, ptr %2, align 4, !tbaa !4
  %70 = load i32, ptr %2, align 4, !tbaa !4
  %71 = icmp ne i32 %70, 0
  br i1 %71, label %72, label %74

72:                                               ; preds = %0
  %73 = load i32, ptr %2, align 4, !tbaa !4
  store i32 %73, ptr %1, align 4
  store i32 1, ptr %13, align 4
  br label %120

74:                                               ; preds = %0
  store i32 0, ptr %12, align 4, !tbaa !4
  br label %75

75:                                               ; preds = %116, %74
  %76 = load i32, ptr %12, align 4, !tbaa !4
  %77 = load i32, ptr %11, align 4, !tbaa !4
  %78 = icmp slt i32 %76, %77
  br i1 %78, label %79, label %119

79:                                               ; preds = %75
  %80 = load i32, ptr %12, align 4, !tbaa !4
  %81 = sext i32 %80 to i64
  %82 = getelementptr inbounds [5 x %struct.testVector], ptr %10, i64 0, i64 %81
  %83 = getelementptr inbounds nuw %struct.testVector, ptr %82, i32 0, i32 0
  %84 = load ptr, ptr %83, align 16, !tbaa !8
  %85 = load i32, ptr %12, align 4, !tbaa !4
  %86 = sext i32 %85 to i64
  %87 = getelementptr inbounds [5 x %struct.testVector], ptr %10, i64 0, i64 %86
  %88 = getelementptr inbounds nuw %struct.testVector, ptr %87, i32 0, i32 2
  %89 = load i64, ptr %88, align 16, !tbaa !14
  %90 = trunc i64 %89 to i32
  %91 = call i32 @wc_Md5Update(ptr noundef %3, ptr noundef %84, i32 noundef %90)
  store i32 %91, ptr %2, align 4, !tbaa !4
  %92 = load i32, ptr %2, align 4, !tbaa !4
  %93 = icmp ne i32 %92, 0
  br i1 %93, label %94, label %96

94:                                               ; preds = %79
  %95 = load i32, ptr %2, align 4, !tbaa !4
  store i32 %95, ptr %1, align 4
  store i32 1, ptr %13, align 4
  br label %120

96:                                               ; preds = %79
  %97 = getelementptr inbounds [16 x i8], ptr %4, i64 0, i64 0
  %98 = call i32 @wc_Md5Final(ptr noundef %3, ptr noundef %97)
  store i32 %98, ptr %2, align 4, !tbaa !4
  %99 = load i32, ptr %2, align 4, !tbaa !4
  %100 = icmp ne i32 %99, 0
  br i1 %100, label %101, label %103

101:                                              ; preds = %96
  %102 = load i32, ptr %2, align 4, !tbaa !4
  store i32 %102, ptr %1, align 4
  store i32 1, ptr %13, align 4
  br label %120

103:                                              ; preds = %96
  %104 = getelementptr inbounds [16 x i8], ptr %4, i64 0, i64 0
  %105 = load i32, ptr %12, align 4, !tbaa !4
  %106 = sext i32 %105 to i64
  %107 = getelementptr inbounds [5 x %struct.testVector], ptr %10, i64 0, i64 %106
  %108 = getelementptr inbounds nuw %struct.testVector, ptr %107, i32 0, i32 1
  %109 = load ptr, ptr %108, align 8, !tbaa !13
  %110 = call i32 @memcmp(ptr noundef %104, ptr noundef %109, i64 noundef 16) #6
  %111 = icmp ne i32 %110, 0
  br i1 %111, label %112, label %115

112:                                              ; preds = %103
  %113 = load i32, ptr %12, align 4, !tbaa !4
  %114 = sub nsw i32 -5, %113
  store i32 %114, ptr %1, align 4
  store i32 1, ptr %13, align 4
  br label %120

115:                                              ; preds = %103
  br label %116

116:                                              ; preds = %115
  %117 = load i32, ptr %12, align 4, !tbaa !4
  %118 = add nsw i32 %117, 1
  store i32 %118, ptr %12, align 4, !tbaa !4
  br label %75, !llvm.loop !19

119:                                              ; preds = %75
  call void @wc_Md5Free(ptr noundef %3)
  store i32 0, ptr %1, align 4
  store i32 1, ptr %13, align 4
  br label %120

120:                                              ; preds = %119, %112, %101, %94, %72
  call void @llvm.lifetime.end.p0(i64 4, ptr %12) #5
  call void @llvm.lifetime.end.p0(i64 4, ptr %11) #5
  call void @llvm.lifetime.end.p0(i64 160, ptr %10) #5
  call void @llvm.lifetime.end.p0(i64 32, ptr %9) #5
  call void @llvm.lifetime.end.p0(i64 32, ptr %8) #5
  call void @llvm.lifetime.end.p0(i64 32, ptr %7) #5
  call void @llvm.lifetime.end.p0(i64 32, ptr %6) #5
  call void @llvm.lifetime.end.p0(i64 32, ptr %5) #5
  call void @llvm.lifetime.end.p0(i64 16, ptr %4) #5
  call void @llvm.lifetime.end.p0(i64 104, ptr %3) #5
  call void @llvm.lifetime.end.p0(i64 4, ptr %2) #5
  %121 = load i32, ptr %1, align 4
  ret i32 %121
}