; Function Attrs: nounwind uwtable
define dso_local i32 @md5_test() local_unnamed_addr #0 {
  %1 = alloca %struct.wc_Md5, align 8
  %2 = alloca [16 x i8], align 16
  %3 = alloca [5 x %struct.testVector], align 16
  call void @llvm.lifetime.start.p0(i64 104, ptr nonnull %1) #6
  call void @llvm.lifetime.start.p0(i64 16, ptr nonnull %2) #6
  call void @llvm.lifetime.start.p0(i64 160, ptr nonnull %3) #6
  store ptr @.str.24, ptr %3, align 16, !tbaa !4
  %.sroa.520.0..sroa_idx = getelementptr inbounds nuw i8, ptr %3, i64 8
  store ptr @.str.25, ptr %.sroa.520.0..sroa_idx, align 8, !tbaa !4
  %.sroa.721.0..sroa_idx = getelementptr inbounds nuw i8, ptr %3, i64 16
  store i64 3, ptr %.sroa.721.0..sroa_idx, align 16, !tbaa !9
  %4 = getelementptr inbounds nuw i8, ptr %3, i64 32
  store ptr @.str.26, ptr %4, align 16, !tbaa !4
  %.sroa.516.0..sroa_idx = getelementptr inbounds nuw i8, ptr %3, i64 40
  store ptr @.str.27, ptr %.sroa.516.0..sroa_idx, align 8, !tbaa !4
  %.sroa.717.0..sroa_idx = getelementptr inbounds nuw i8, ptr %3, i64 48
  store i64 14, ptr %.sroa.717.0..sroa_idx, align 16, !tbaa !9
  %5 = getelementptr inbounds nuw i8, ptr %3, i64 64
  store ptr @.str.28, ptr %5, align 16, !tbaa !4
  %.sroa.512.0..sroa_idx = getelementptr inbounds nuw i8, ptr %3, i64 72
  store ptr @.str.29, ptr %.sroa.512.0..sroa_idx, align 8, !tbaa !4
  %.sroa.713.0..sroa_idx = getelementptr inbounds nuw i8, ptr %3, i64 80
  store i64 26, ptr %.sroa.713.0..sroa_idx, align 16, !tbaa !9
  %6 = getelementptr inbounds nuw i8, ptr %3, i64 96
  store ptr @.str.30, ptr %6, align 16, !tbaa !4
  %.sroa.58.0..sroa_idx = getelementptr inbounds nuw i8, ptr %3, i64 104
  store ptr @.str.31, ptr %.sroa.58.0..sroa_idx, align 8, !tbaa !4
  %.sroa.79.0..sroa_idx = getelementptr inbounds nuw i8, ptr %3, i64 112
  store i64 62, ptr %.sroa.79.0..sroa_idx, align 16, !tbaa !9
  %7 = getelementptr inbounds nuw i8, ptr %3, i64 128
  store ptr @.str.32, ptr %7, align 16, !tbaa !4
  %.sroa.5.0..sroa_idx = getelementptr inbounds nuw i8, ptr %3, i64 136
  store ptr @.str.33, ptr %.sroa.5.0..sroa_idx, align 8, !tbaa !4
  %.sroa.7.0..sroa_idx = getelementptr inbounds nuw i8, ptr %3, i64 144
  store i64 80, ptr %.sroa.7.0..sroa_idx, align 16, !tbaa !9
  %8 = call i32 @wc_InitMd5(ptr noundef nonnull %1) #6
  %.not = icmp eq i32 %8, 0
  br i1 %.not, label %.preheader, label %.loopexit

.preheader:                                       ; preds = %0, %23
  %indvars.iv = phi i64 [ %indvars.iv.next, %23 ], [ 0, %0 ]
  %9 = getelementptr inbounds nuw [5 x %struct.testVector], ptr %3, i64 0, i64 %indvars.iv
  %10 = load ptr, ptr %9, align 16, !tbaa !11
  %11 = getelementptr inbounds nuw i8, ptr %9, i64 16
  %12 = load i64, ptr %11, align 16, !tbaa !13
  %13 = trunc i64 %12 to i32
  %14 = call i32 @wc_Md5Update(ptr noundef nonnull %1, ptr noundef %10, i32 noundef %13) #6
  %.not34 = icmp eq i32 %14, 0
  br i1 %.not34, label %15, label %.loopexit

15:                                               ; preds = %.preheader
  %16 = call i32 @wc_Md5Final(ptr noundef nonnull %1, ptr noundef nonnull %2) #6
  %.not35 = icmp eq i32 %16, 0
  br i1 %.not35, label %17, label %.loopexit

17:                                               ; preds = %15
  %18 = getelementptr inbounds nuw i8, ptr %9, i64 8
  %19 = load ptr, ptr %18, align 8, !tbaa !14
  %bcmp = call i32 @bcmp(ptr noundef nonnull dereferenceable(16) %2, ptr noundef nonnull dereferenceable(16) %19, i64 16)
  %.not36 = icmp eq i32 %bcmp, 0
  br i1 %.not36, label %23, label %20

20:                                               ; preds = %17
  %21 = trunc nuw nsw i64 %indvars.iv to i32
  %22 = sub nuw nsw i32 -5, %21
  br label %.loopexit

23:                                               ; preds = %17
  %indvars.iv.next = add nuw nsw i64 %indvars.iv, 1
  %exitcond.not = icmp eq i64 %indvars.iv.next, 5
  br i1 %exitcond.not, label %24, label %.preheader, !llvm.loop !15

24:                                               ; preds = %23
  call void @wc_Md5Free(ptr noundef nonnull %1) #6
  br label %.loopexit

.loopexit:                                        ; preds = %15, %.preheader, %0, %24, %20
  %.030 = phi i32 [ %22, %20 ], [ 0, %24 ], [ %8, %0 ], [ %16, %15 ], [ %14, %.preheader ]
  call void @llvm.lifetime.end.p0(i64 160, ptr nonnull %3) #6
  call void @llvm.lifetime.end.p0(i64 16, ptr nonnull %2) #6
  call void @llvm.lifetime.end.p0(i64 104, ptr nonnull %1) #6
  ret i32 %.030
}